target datalayout = "e-m:e-p270:32:32-p271:32:32-p272:64:64-i64:64-i128:128-f80:128-n8:16:32:64-S128"
target triple = "x86_64-pc-linux-gnu"

%"class.clang::SourceLocation" = type { i32 }
%class.anon.1403 = type { ptr, ptr }

; Function Attrs: mustprogress nounwind uwtable
define internal void @"_ZZN5clang9ASTReader14ReadDeclRecordENS_12GlobalDeclIDEENK3$_1clEv"(ptr noundef nonnull align 8 dereferenceable(16) %0) #0 align 2 {
  %2 = alloca ptr, align 8
  %3 = alloca %"class.clang::SourceLocation", align 4
  store ptr %0, ptr %2, align 8
  %4 = load ptr, ptr %2, align 8
  %5 = getelementptr inbounds nuw %class.anon.1403, ptr %4, i32 0, i32 0
  %6 = load ptr, ptr %5, align 8
  %7 = getelementptr inbounds nuw %class.anon.1403, ptr %4, i32 0, i32 1
  %8 = load ptr, ptr %7, align 8
  call void @llvm.memcpy.p0.p0.i64(ptr align 4 %3, ptr align 4 %8, i64 4, i1 false)
  %9 = getelementptr inbounds nuw %"class.clang::SourceLocation", ptr %3, i32 0, i32 0
  %10 = load i32, ptr %9, align 4
  call void @_ZN5clang9ASTReader18warnStackExhaustedENS_14SourceLocationE(ptr noundef nonnull align 8 dereferenceable(15968) %6, i32 %10)
  ret void
}

; Function Attrs: mustprogress nounwind uwtable
define internal void @"_ZN4llvm12function_refIFvvEE11callback_fnIZN5clang9ASTReader14ReadDeclRecordENS4_12GlobalDeclIDEE3$_1EEvl"(i64 noundef %0) #0 align 2 {
  %2 = alloca i64, align 8
  store i64 %0, ptr %2, align 8
  %3 = load i64, ptr %2, align 8
  %4 = inttoptr i64 %3 to ptr
  call void @"_ZZN5clang9ASTReader14ReadDeclRecordENS_12GlobalDeclIDEENK3$_1clEv"(ptr noundef nonnull align 8 dereferenceable(16) %4)
  ret void
}